target datalayout = "e-m:e-p270:32:32-p271:32:32-p272:64:64-i64:64-i128:128-f80:128-n8:16:32:64-S128"
target triple = "x86_64-pc-linux-gnu"

%struct.hyperLogLogState = type { i8, i64, double, ptr, i64 }

; Function Attrs: inlinehint nounwind uwtable
define internal i32 @pg_leftmost_one_pos32(i32 noundef %0) #5 {
  %2 = alloca i32, align 4
  store i32 %0, ptr %2, align 4
  %3 = load i32, ptr %2, align 4
  %4 = call i32 @llvm.ctlz.i32(i32 %3, i1 true)
  %5 = sub i32 31, %4
  ret i32 %5
}

; Function Attrs: inlinehint nounwind uwtable
define internal zeroext i8 @rho(i32 noundef %0, i8 noundef zeroext %1) #5 {
  %3 = alloca i8, align 1
  %4 = alloca i32, align 4
  %5 = alloca i8, align 1
  %6 = alloca i8, align 1
  %7 = alloca i32, align 4
  store i32 %0, ptr %4, align 4
  store i8 %1, ptr %5, align 1
  call void @llvm.lifetime.start.p0(i64 1, ptr %6) #7
  store i8 1, ptr %6, align 1
  %8 = load i32, ptr %4, align 4
  %9 = icmp eq i32 %8, 0
  br i1 %9, label %10, label %15

10:                                               ; preds = %2
  %11 = load i8, ptr %5, align 1
  %12 = zext i8 %11 to i32
  %13 = add i32 %12, 1
  %14 = trunc i32 %13 to i8
  store i8 %14, ptr %3, align 1
  store i32 1, ptr %7, align 4
  br label %32

15:                                               ; preds = %2
  %16 = load i32, ptr %4, align 4
  %17 = call i32 @pg_leftmost_one_pos32(i32 noundef %16)
  %18 = sub i32 32, %17
  %19 = trunc i32 %18 to i8
  store i8 %19, ptr %6, align 1
  %20 = load i8, ptr %6, align 1
  %21 = zext i8 %20 to i32
  %22 = load i8, ptr %5, align 1
  %23 = zext i8 %22 to i32
  %24 = icmp sgt i32 %21, %23
  br i1 %24, label %25, label %30

25:                                               ; preds = %15
  %26 = load i8, ptr %5, align 1
  %27 = zext i8 %26 to i32
  %28 = add i32 %27, 1
  %29 = trunc i32 %28 to i8
  store i8 %29, ptr %3, align 1
  store i32 1, ptr %7, align 4
  br label %32

30:                                               ; preds = %15
  %31 = load i8, ptr %6, align 1
  store i8 %31, ptr %3, align 1
  store i32 1, ptr %7, align 4
  br label %32

32:                                               ; preds = %30, %25, %10
  call void @llvm.lifetime.end.p0(i64 1, ptr %6) #7
  %33 = load i8, ptr %3, align 1
  ret i8 %33
}

; Function Attrs: nounwind uwtable
define dso_local void @addHyperLogLog(ptr noundef %0, i32 noundef %1) #0 {
  %3 = alloca ptr, align 8
  %4 = alloca i32, align 4
  %5 = alloca i8, align 1
  %6 = alloca i32, align 4
  store ptr %0, ptr %3, align 8
  store i32 %1, ptr %4, align 4
  call void @llvm.lifetime.start.p0(i64 1, ptr %5) #7
  call void @llvm.lifetime.start.p0(i64 4, ptr %6) #7
  %7 = load i32, ptr %4, align 4
  %8 = load ptr, ptr %3, align 8
  %9 = getelementptr inbounds nuw %struct.hyperLogLogState, ptr %8, i32 0, i32 0
  %10 = load i8, ptr %9, align 8
  %11 = zext i8 %10 to i64
  %12 = sub i64 32, %11
  %13 = trunc i64 %12 to i32
  %14 = lshr i32 %7, %13
  store i32 %14, ptr %6, align 4
  %15 = load i32, ptr %4, align 4
  %16 = load ptr, ptr %3, align 8
  %17 = getelementptr inbounds nuw %struct.hyperLogLogState, ptr %16, i32 0, i32 0
  %18 = load i8, ptr %17, align 8
  %19 = zext i8 %18 to i32
  %20 = shl i32 %15, %19
  %21 = load ptr, ptr %3, align 8
  %22 = getelementptr inbounds nuw %struct.hyperLogLogState, ptr %21, i32 0, i32 0
  %23 = load i8, ptr %22, align 8
  %24 = zext i8 %23 to i64
  %25 = sub i64 32, %24
  %26 = trunc i64 %25 to i8
  %27 = call zeroext i8 @rho(i32 noundef %20, i8 noundef zeroext %26)
  store i8 %27, ptr %5, align 1
  %28 = load i8, ptr %5, align 1
  %29 = zext i8 %28 to i32
  %30 = load ptr, ptr %3, align 8
  %31 = getelementptr inbounds nuw %struct.hyperLogLogState, ptr %30, i32 0, i32 3
  %32 = load ptr, ptr %31, align 8
  %33 = load i32, ptr %6, align 4
  %34 = zext i32 %33 to i64
  %35 = getelementptr inbounds nuw i8, ptr %32, i64 %34
  %36 = load i8, ptr %35, align 1
  %37 = zext i8 %36 to i32
  %38 = icmp sgt i32 %29, %37
  br i1 %38, label %39, label %42

39:                                               ; preds = %2
  %40 = load i8, ptr %5, align 1
  %41 = zext i8 %40 to i32
  br label %51

42:                                               ; preds = %2
  %43 = load ptr, ptr %3, align 8
  %44 = getelementptr inbounds nuw %struct.hyperLogLogState, ptr %43, i32 0, i32 3
  %45 = load ptr, ptr %44, align 8
  %46 = load i32, ptr %6, align 4
  %47 = zext i32 %46 to i64
  %48 = getelementptr inbounds nuw i8, ptr %45, i64 %47
  %49 = load i8, ptr %48, align 1
  %50 = zext i8 %49 to i32
  br label %51

51:                                               ; preds = %42, %39
  %52 = phi i32 [ %41, %39 ], [ %50, %42 ]
  %53 = trunc i32 %52 to i8
  %54 = load ptr, ptr %3, align 8
  %55 = getelementptr inbounds nuw %struct.hyperLogLogState, ptr %54, i32 0, i32 3
  %56 = load ptr, ptr %55, align 8
  %57 = load i32, ptr %6, align 4
  %58 = zext i32 %57 to i64
  %59 = getelementptr inbounds nuw i8, ptr %56, i64 %58
  store i8 %53, ptr %59, align 1
  call void @llvm.lifetime.end.p0(i64 4, ptr %6) #7
  call void @llvm.lifetime.end.p0(i64 1, ptr %5) #7
  ret void
}